target datalayout = "e-m:e-p270:32:32-p271:32:32-p272:64:64-i64:64-i128:128-f80:128-n8:16:32:64-S128"
target triple = "x86_64-pc-linux-gnu"

%struct.evhttp_uri = type { i32, ptr, ptr, ptr, i32, ptr, ptr, ptr, ptr }

@.str.46 = private unnamed_addr constant [13 x i8] c"%s: strdup()\00", align 1
@__func__.evhttp_uri_set_fragment = private unnamed_addr constant [24 x i8] c"evhttp_uri_set_fragment\00", align 1

; Function Attrs: nounwind uwtable
define i32 @evhttp_uri_set_fragment(ptr noundef %0, ptr noundef %1) #0 {
  %3 = alloca i32, align 4
  %4 = alloca ptr, align 8
  %5 = alloca ptr, align 8
  store ptr %0, ptr %4, align 8
  store ptr %1, ptr %5, align 8
  %6 = load ptr, ptr %5, align 8
  %7 = icmp ne ptr %6, null
  br i1 %7, label %8, label %20

8:                                                ; preds = %2
  %9 = load ptr, ptr %5, align 8
  %10 = load ptr, ptr %4, align 8
  %11 = getelementptr inbounds nuw %struct.evhttp_uri, ptr %10, i32 0, i32 0
  %12 = load i32, ptr %11, align 8
  %13 = call ptr @end_of_path(ptr noundef %9, i32 noundef 2, i32 noundef %12)
  %14 = load ptr, ptr %5, align 8
  %15 = load ptr, ptr %5, align 8
  %16 = call i64 @strlen(ptr noundef %15) #12
  %17 = getelementptr inbounds nuw i8, ptr %14, i64 %16
  %18 = icmp ne ptr %13, %17
  br i1 %18, label %19, label %20

19:                                               ; preds = %8
  store i32 -1, ptr %3, align 4
  br label %46

20:                                               ; preds = %8, %2
  br label %21

21:                                               ; preds = %20
  %22 = load ptr, ptr %4, align 8
  %23 = getelementptr inbounds nuw %struct.evhttp_uri, ptr %22, i32 0, i32 8
  %24 = load ptr, ptr %23, align 8
  %25 = icmp ne ptr %24, null
  br i1 %25, label %26, label %30

26:                                               ; preds = %21
  %27 = load ptr, ptr %4, align 8
  %28 = getelementptr inbounds nuw %struct.evhttp_uri, ptr %27, i32 0, i32 8
  %29 = load ptr, ptr %28, align 8
  call void @event_mm_free_(ptr noundef %29)
  br label %30

30:                                               ; preds = %26, %21
  %31 = load ptr, ptr %5, align 8
  %32 = icmp ne ptr %31, null
  br i1 %32, label %33, label %41

33:                                               ; preds = %30
  %34 = load ptr, ptr %5, align 8
  %35 = call ptr @event_mm_strdup_(ptr noundef %34)
  %36 = load ptr, ptr %4, align 8
  %37 = getelementptr inbounds nuw %struct.evhttp_uri, ptr %36, i32 0, i32 8
  store ptr %35, ptr %37, align 8
  %38 = icmp eq ptr %35, null
  br i1 %38, label %39, label %40

39:                                               ; preds = %33
  call void (ptr, ...) @event_warn(ptr noundef @.str.46, ptr noundef @__func__.evhttp_uri_set_fragment)
  store i32 -1, ptr %3, align 4
  br label %46

40:                                               ; preds = %33
  br label %44

41:                                               ; preds = %30
  %42 = load ptr, ptr %4, align 8
  %43 = getelementptr inbounds nuw %struct.evhttp_uri, ptr %42, i32 0, i32 8
  store ptr null, ptr %43, align 8
  br label %44

44:                                               ; preds = %41, %40
  br label %45

45:                                               ; preds = %44
  store i32 0, ptr %3, align 4
  br label %46

46:                                               ; preds = %45, %39, %19
  %47 = load i32, ptr %3, align 4
  ret i32 %47
}